; Function Attrs: nounwind uwtable
define dso_local i64 @hashnameextended(ptr noundef readonly captures(none) %0) local_unnamed_addr #0 {
  %2 = getelementptr inbounds nuw i8, ptr %0, i64 32
  %3 = load i64, ptr %2, align 8
  %4 = inttoptr i64 %3 to ptr
  %5 = tail call i64 @strlen(ptr noundef nonnull dereferenceable(1) %4) #7
  %6 = trunc i64 %5 to i32
  %7 = getelementptr inbounds nuw i8, ptr %0, i64 48
  %8 = load i64, ptr %7, align 8
  %9 = tail call i64 @hash_bytes_extended(ptr noundef nonnull %4, i32 noundef %6, i64 noundef %8) #6
  ret i64 %9
}